target datalayout = "e-m:e-p270:32:32-p271:32:32-p272:64:64-i64:64-i128:128-f80:128-n8:16:32:64-S128"
target triple = "x86_64-pc-linux-gnu"

%struct.H5FD_splitter_fapl_t = type { i64, i64, [4097 x i8], [4097 x i8], i8 }
%struct.H5FD_splitter_t = type { %struct.H5FD_t, i32, %struct.H5FD_splitter_fapl_t, ptr, ptr, ptr }
%struct.H5FD_t = type { i64, ptr, i64, i32, i64, i64, i64, i64, i64, i8 }

@H5FD_init_g = external global i8, align 1
@H5_libterm_g = external global i8, align 1
@.str = private unnamed_addr constant [106 x i8] c"generated/home/dtcxzyw/WorkSpace/Projects/compilers/llvm-opt-benchmark/bench/hdf5/hdf5/src/H5FDsplitter.c\00", align 1
@H5E_VFL_g = external global i64, align 8
@H5E_CANTINIT_g = external global i64, align 8
@__func__.H5FD__splitter_free = private unnamed_addr constant [20 x i8] c"H5FD__splitter_free\00", align 1
@H5E_CANTFREE_g = external global i64, align 8
@.str.49 = private unnamed_addr constant [28 x i8] c"unable to free for R/W file\00", align 1
@.str.50 = private unnamed_addr constant [28 x i8] c"unable to free for W/O file\00", align 1

; Function Attrs: nounwind uwtable
define internal i32 @H5FD__splitter_free(ptr noundef %0, i32 noundef %1, i64 noundef %2, i64 noundef %3, i64 noundef %4) #0 {
  %6 = alloca ptr, align 8
  %7 = alloca i32, align 4
  %8 = alloca i64, align 8
  %9 = alloca i64, align 8
  %10 = alloca i64, align 8
  %11 = alloca ptr, align 8
  %12 = alloca i32, align 4
  %13 = alloca i8, align 1
  store ptr %0, ptr %6, align 8, !tbaa !38
  store i32 %1, ptr %7, align 4, !tbaa !3
  store i64 %2, ptr %8, align 8, !tbaa !11
  store i64 %3, ptr %9, align 8, !tbaa !11
  store i64 %4, ptr %10, align 8, !tbaa !11
  call void @llvm.lifetime.start.p0(i64 8, ptr %11) #10
  %14 = load ptr, ptr %6, align 8, !tbaa !38
  store ptr %14, ptr %11, align 8, !tbaa !40
  call void @llvm.lifetime.start.p0(i64 4, ptr %12) #10
  store i32 0, ptr %12, align 4, !tbaa !3
  call void @llvm.lifetime.start.p0(i64 1, ptr %13) #10
  store i8 0, ptr %13, align 1, !tbaa !7
  %15 = load i8, ptr @H5FD_init_g, align 1, !tbaa !7, !range !9, !noundef !10
  %16 = trunc i8 %15 to i1
  br i1 %16, label %21, label %17

17:                                               ; preds = %5
  %18 = load i8, ptr @H5_libterm_g, align 1, !tbaa !7, !range !9, !noundef !10
  %19 = trunc i8 %18 to i1
  %20 = xor i1 %19, true
  br label %21

21:                                               ; preds = %17, %5
  %22 = phi i1 [ true, %5 ], [ %20, %17 ]
  %23 = xor i1 %22, true
  %24 = xor i1 %23, true
  %25 = zext i1 %24 to i32
  %26 = sext i32 %25 to i64
  %27 = call i64 @llvm.expect.i64(i64 %26, i64 1)
  %28 = icmp ne i64 %27, 0
  br i1 %28, label %29, label %100

29:                                               ; preds = %21
  %30 = load ptr, ptr %11, align 8, !tbaa !40
  %31 = getelementptr inbounds nuw %struct.H5FD_splitter_t, ptr %30, i32 0, i32 3
  %32 = load ptr, ptr %31, align 8, !tbaa !42
  %33 = load i32, ptr %7, align 4, !tbaa !3
  %34 = load i64, ptr %8, align 8, !tbaa !11
  %35 = load i64, ptr %9, align 8, !tbaa !11
  %36 = load i64, ptr %10, align 8, !tbaa !11
  %37 = call i32 @H5FDfree(ptr noundef %32, i32 noundef %33, i64 noundef %34, i64 noundef %35, i64 noundef %36)
  %38 = icmp slt i32 %37, 0
  br i1 %38, label %39, label %58

39:                                               ; preds = %29
  br label %40

40:                                               ; preds = %39
  br label %41

41:                                               ; preds = %40
  br label %42

42:                                               ; preds = %41
  %43 = load i64, ptr @H5E_VFL_g, align 8, !tbaa !11
  %44 = load i64, ptr @H5E_CANTFREE_g, align 8, !tbaa !11
  %45 = call i32 (ptr, ptr, i32, i64, i64, ptr, ...) @H5E_printf_stack(ptr noundef @.str, ptr noundef @__func__.H5FD__splitter_free, i32 noundef 1447, i64 noundef %43, i64 noundef %44, ptr noundef @.str.49)
  br label %46

46:                                               ; preds = %42
  br label %47

47:                                               ; preds = %46
  store i8 1, ptr %13, align 1, !tbaa !7
  %48 = load i8, ptr %13, align 1, !tbaa !7, !range !9, !noundef !10
  %49 = trunc i8 %48 to i1
  %50 = zext i1 %49 to i8
  store i8 %50, ptr %13, align 1, !tbaa !7
  br label %51

51:                                               ; preds = %47
  br label %52

52:                                               ; preds = %51
  br label %53

53:                                               ; preds = %52
  store i32 -1, ptr %12, align 4, !tbaa !3
  br label %99

54:                                               ; No predecessors!
  br label %55

55:                                               ; preds = %54
  br label %56

56:                                               ; preds = %55
  br label %57

57:                                               ; preds = %56
  br label %58

58:                                               ; preds = %57, %29
  %59 = load ptr, ptr %11, align 8, !tbaa !40
  %60 = getelementptr inbounds nuw %struct.H5FD_splitter_t, ptr %59, i32 0, i32 4
  %61 = load ptr, ptr %60, align 8, !tbaa !52
  %62 = load i32, ptr %7, align 4, !tbaa !3
  %63 = load i64, ptr %8, align 8, !tbaa !11
  %64 = load i64, ptr %9, align 8, !tbaa !11
  %65 = load i64, ptr %10, align 8, !tbaa !11
  %66 = call i32 @H5FDfree(ptr noundef %61, i32 noundef %62, i64 noundef %63, i64 noundef %64, i64 noundef %65)
  %67 = icmp slt i32 %66, 0
  br i1 %67, label %68, label %98

68:                                               ; preds = %58
  %69 = load ptr, ptr %11, align 8, !tbaa !40
  %70 = call i32 @H5FD__splitter_log_error(ptr noundef %69, ptr noundef @__func__.H5FD__splitter_free, ptr noundef @.str.50)
  %71 = load ptr, ptr %11, align 8, !tbaa !40
  %72 = getelementptr inbounds nuw %struct.H5FD_splitter_t, ptr %71, i32 0, i32 2
  %73 = getelementptr inbounds nuw %struct.H5FD_splitter_fapl_t, ptr %72, i32 0, i32 4
  %74 = load i8, ptr %73, align 2, !tbaa !50, !range !9, !noundef !10
  %75 = trunc i8 %74 to i1
  %76 = zext i1 %75 to i32
  %77 = icmp eq i32 0, %76
  br i1 %77, label %78, label %97

78:                                               ; preds = %68
  br label %79

79:                                               ; preds = %78
  br label %80

80:                                               ; preds = %79
  br label %81

81:                                               ; preds = %80
  %82 = load i64, ptr @H5E_VFL_g, align 8, !tbaa !11
  %83 = load i64, ptr @H5E_CANTINIT_g, align 8, !tbaa !11
  %84 = call i32 (ptr, ptr, i32, i64, i64, ptr, ...) @H5E_printf_stack(ptr noundef @.str, ptr noundef @__func__.H5FD__splitter_free, i32 noundef 1450, i64 noundef %82, i64 noundef %83, ptr noundef @.str.50)
  br label %85

85:                                               ; preds = %81
  br label %86

86:                                               ; preds = %85
  store i8 1, ptr %13, align 1, !tbaa !7
  %87 = load i8, ptr %13, align 1, !tbaa !7, !range !9, !noundef !10
  %88 = trunc i8 %87 to i1
  %89 = zext i1 %88 to i8
  store i8 %89, ptr %13, align 1, !tbaa !7
  br label %90

90:                                               ; preds = %86
  br label %91

91:                                               ; preds = %90
  br label %92

92:                                               ; preds = %91
  store i32 -1, ptr %12, align 4, !tbaa !3
  br label %99

93:                                               ; No predecessors!
  br label %94

94:                                               ; preds = %93
  br label %95

95:                                               ; preds = %94
  br label %96

96:                                               ; preds = %95
  br label %97

97:                                               ; preds = %96, %68
  br label %98

98:                                               ; preds = %97, %58
  br label %99

99:                                               ; preds = %98, %92, %53
  br label %100

100:                                              ; preds = %99, %21
  %101 = load i32, ptr %12, align 4, !tbaa !3
  call void @llvm.lifetime.end.p0(i64 1, ptr %13) #10
  call void @llvm.lifetime.end.p0(i64 4, ptr %12) #10
  call void @llvm.lifetime.end.p0(i64 8, ptr %11) #10
  ret i32 %101
}