; Function Attrs: nounwind uwtable
define internal range(i32 -1, 1) i32 @H5FD__splitter_free(ptr noundef readonly captures(none) %0, i32 noundef %1, i64 noundef %2, i64 noundef %3, i64 noundef %4) #0 {
  %6 = load i8, ptr @H5FD_init_g, align 1, !tbaa !3, !range !7, !noundef !8
  %7 = trunc nuw i8 %6 to i1
  %8 = load i8, ptr @H5_libterm_g, align 1, !range !7
  %9 = trunc nuw i8 %8 to i1
  %10 = xor i1 %9, true
  %11 = select i1 %7, i1 true, i1 %10
  br i1 %11, label %12, label %34, !prof !9

12:                                               ; preds = %5
  %13 = getelementptr inbounds nuw i8, ptr %0, i64 8304
  %14 = load ptr, ptr %13, align 8, !tbaa !33
  %15 = tail call i32 @H5FDfree(ptr noundef %14, i32 noundef %1, i64 noundef %2, i64 noundef %3, i64 noundef %4) #12
  %16 = icmp slt i32 %15, 0
  br i1 %16, label %17, label %21

17:                                               ; preds = %12
  %18 = load i64, ptr @H5E_VFL_g, align 8, !tbaa !10
  %19 = load i64, ptr @H5E_CANTFREE_g, align 8, !tbaa !10
  %20 = tail call i32 (ptr, ptr, i32, i64, i64, ptr, ...) @H5E_printf_stack(ptr noundef nonnull @.str, ptr noundef nonnull @__func__.H5FD__splitter_free, i32 noundef 1447, i64 noundef %18, i64 noundef %19, ptr noundef nonnull @.str.49) #12
  br label %34

21:                                               ; preds = %12
  %22 = getelementptr inbounds nuw i8, ptr %0, i64 8312
  %23 = load ptr, ptr %22, align 8, !tbaa !43
  %24 = tail call i32 @H5FDfree(ptr noundef %23, i32 noundef %1, i64 noundef %2, i64 noundef %3, i64 noundef %4) #12
  %25 = icmp slt i32 %24, 0
  br i1 %25, label %26, label %34

26:                                               ; preds = %21
  tail call fastcc void @H5FD__splitter_log_error(ptr noundef nonnull %0, ptr noundef nonnull @__func__.H5FD__splitter_free, ptr noundef nonnull @.str.50)
  %27 = getelementptr inbounds nuw i8, ptr %0, i64 8298
  %28 = load i8, ptr %27, align 2, !tbaa !39, !range !7, !noundef !8
  %29 = icmp eq i8 %28, 0
  br i1 %29, label %30, label %34

30:                                               ; preds = %26
  %31 = load i64, ptr @H5E_VFL_g, align 8, !tbaa !10
  %32 = load i64, ptr @H5E_CANTINIT_g, align 8, !tbaa !10
  %33 = tail call i32 (ptr, ptr, i32, i64, i64, ptr, ...) @H5E_printf_stack(ptr noundef nonnull @.str, ptr noundef nonnull @__func__.H5FD__splitter_free, i32 noundef 1450, i64 noundef %31, i64 noundef %32, ptr noundef nonnull @.str.50) #12
  br label %34

34:                                               ; preds = %17, %30, %26, %21, %5
  %.0 = phi i32 [ -1, %17 ], [ -1, %30 ], [ 0, %26 ], [ 0, %21 ], [ 0, %5 ]
  ret i32 %.0
}